target datalayout = "e-m:e-p270:32:32-p271:32:32-p272:64:64-i64:64-i128:128-f80:128-n8:16:32:64-S128"
target triple = "x86_64-pc-linux-gnu"

; Function Attrs: inlinehint mustprogress nounwind uwtable
define linkonce_odr noundef nonnull align 4 dereferenceable(4) ptr @_ZSt3minIiERKT_S2_S2_(ptr noundef nonnull align 4 dereferenceable(4) %0, ptr noundef nonnull align 4 dereferenceable(4) %1) #6 comdat {
  %3 = alloca ptr, align 8
  %4 = alloca ptr, align 8
  %5 = alloca ptr, align 8
  store ptr %0, ptr %4, align 8, !tbaa !25
  store ptr %1, ptr %5, align 8, !tbaa !25
  %6 = load ptr, ptr %5, align 8, !tbaa !25
  %7 = load i32, ptr %6, align 4, !tbaa !9
  %8 = load ptr, ptr %4, align 8, !tbaa !25
  %9 = load i32, ptr %8, align 4, !tbaa !9
  %10 = icmp slt i32 %7, %9
  br i1 %10, label %11, label %13

11:                                               ; preds = %2
  %12 = load ptr, ptr %5, align 8, !tbaa !25
  store ptr %12, ptr %3, align 8
  br label %15

13:                                               ; preds = %2
  %14 = load ptr, ptr %4, align 8, !tbaa !25
  store ptr %14, ptr %3, align 8
  br label %15

15:                                               ; preds = %13, %11
  %16 = load ptr, ptr %3, align 8
  ret ptr %16
}

; Function Attrs: inlinehint mustprogress nounwind uwtable
define linkonce_odr hidden noundef i32 @_ZN6google8protobuf8internal13implicit_castIimEET_RKT0_(ptr noundef nonnull align 8 dereferenceable(8) %0) #6 comdat {
  %2 = alloca ptr, align 8
  store ptr %0, ptr %2, align 8, !tbaa !50
  %3 = load ptr, ptr %2, align 8, !tbaa !50
  %4 = load i64, ptr %3, align 8, !tbaa !44
  %5 = trunc i64 %4 to i32
  ret i32 %5
}

; Function Attrs: mustprogress uwtable
define hidden noundef i32 @_ZN6google8protobuf2io18CopyingInputStream4SkipEi(ptr noundef nonnull align 8 dereferenceable(8) %0, i32 noundef %1) unnamed_addr #4 align 2 {
  %3 = alloca i32, align 4
  %4 = alloca ptr, align 8
  %5 = alloca i32, align 4
  %6 = alloca [4096 x i8], align 16
  %7 = alloca i32, align 4
  %8 = alloca i32, align 4
  %9 = alloca i32, align 4
  %10 = alloca i32, align 4
  %11 = alloca i64, align 8
  %12 = alloca i32, align 4
  store ptr %0, ptr %4, align 8, !tbaa !52
  store i32 %1, ptr %5, align 4, !tbaa !9
  %13 = load ptr, ptr %4, align 8
  call void @llvm.lifetime.start.p0(i64 4096, ptr %6) #3
  call void @llvm.lifetime.start.p0(i64 4, ptr %7) #3
  store i32 0, ptr %7, align 4, !tbaa !9
  br label %14

14:                                               ; preds = %40, %2
  %15 = load i32, ptr %7, align 4, !tbaa !9
  %16 = load i32, ptr %5, align 4, !tbaa !9
  %17 = icmp slt i32 %15, %16
  br i1 %17, label %18, label %41

18:                                               ; preds = %14
  call void @llvm.lifetime.start.p0(i64 4, ptr %8) #3
  %19 = getelementptr inbounds [4096 x i8], ptr %6, i64 0, i64 0
  call void @llvm.lifetime.start.p0(i64 4, ptr %9) #3
  %20 = load i32, ptr %5, align 4, !tbaa !9
  %21 = load i32, ptr %7, align 4, !tbaa !9
  %22 = sub nsw i32 %20, %21
  store i32 %22, ptr %9, align 4, !tbaa !9
  call void @llvm.lifetime.start.p0(i64 4, ptr %10) #3
  call void @llvm.lifetime.start.p0(i64 8, ptr %11) #3
  store i64 4096, ptr %11, align 8, !tbaa !44
  %23 = call noundef i32 @_ZN6google8protobuf8internal13implicit_castIimEET_RKT0_(ptr noundef nonnull align 8 dereferenceable(8) %11)
  store i32 %23, ptr %10, align 4, !tbaa !9
  %24 = call noundef nonnull align 4 dereferenceable(4) ptr @_ZSt3minIiERKT_S2_S2_(ptr noundef nonnull align 4 dereferenceable(4) %9, ptr noundef nonnull align 4 dereferenceable(4) %10)
  %25 = load i32, ptr %24, align 4, !tbaa !9
  %26 = load ptr, ptr %13, align 8, !tbaa !11
  %27 = getelementptr inbounds ptr, ptr %26, i64 2
  %28 = load ptr, ptr %27, align 8
  %29 = call noundef i32 %28(ptr noundef nonnull align 8 dereferenceable(8) %13, ptr noundef %19, i32 noundef %25)
  call void @llvm.lifetime.end.p0(i64 8, ptr %11) #3
  call void @llvm.lifetime.end.p0(i64 4, ptr %10) #3
  call void @llvm.lifetime.end.p0(i64 4, ptr %9) #3
  store i32 %29, ptr %8, align 4, !tbaa !9
  %30 = load i32, ptr %8, align 4, !tbaa !9
  %31 = icmp sle i32 %30, 0
  br i1 %31, label %32, label %34

32:                                               ; preds = %18
  %33 = load i32, ptr %7, align 4, !tbaa !9
  store i32 %33, ptr %3, align 4
  store i32 1, ptr %12, align 4
  br label %38

34:                                               ; preds = %18
  %35 = load i32, ptr %8, align 4, !tbaa !9
  %36 = load i32, ptr %7, align 4, !tbaa !9
  %37 = add nsw i32 %36, %35
  store i32 %37, ptr %7, align 4, !tbaa !9
  store i32 0, ptr %12, align 4
  br label %38

38:                                               ; preds = %34, %32
  call void @llvm.lifetime.end.p0(i64 4, ptr %8) #3
  %39 = load i32, ptr %12, align 4
  switch i32 %39, label %43 [
    i32 0, label %40
  ]

40:                                               ; preds = %38
  br label %14, !llvm.loop !54

41:                                               ; preds = %14
  %42 = load i32, ptr %7, align 4, !tbaa !9
  store i32 %42, ptr %3, align 4
  store i32 1, ptr %12, align 4
  br label %43

43:                                               ; preds = %41, %38
  call void @llvm.lifetime.end.p0(i64 4, ptr %7) #3
  call void @llvm.lifetime.end.p0(i64 4096, ptr %6) #3
  %44 = load i32, ptr %3, align 4
  ret i32 %44
}