; Function Attrs: mustprogress uwtable
define hidden noundef i32 @_ZN6google8protobuf2io18CopyingInputStream4SkipEi(ptr noundef nonnull align 8 dereferenceable(8) %0, i32 noundef %1) unnamed_addr #6 align 2 {
  %3 = alloca [4096 x i8], align 16
  call void @llvm.lifetime.start.p0(i64 4096, ptr nonnull %3) #19
  br label %4

4:                                                ; preds = %6, %2
  %.012 = phi i32 [ 0, %2 ], [ %13, %6 ]
  %5 = icmp slt i32 %.012, %1
  br i1 %5, label %6, label %14

6:                                                ; preds = %4
  %7 = sub nsw i32 %1, %.012
  %.sroa.speculated = call i32 @llvm.smin.i32(i32 %7, i32 4096)
  %8 = load ptr, ptr %0, align 8, !tbaa !3
  %9 = getelementptr inbounds nuw i8, ptr %8, i64 16
  %10 = load ptr, ptr %9, align 8
  %11 = call noundef i32 %10(ptr noundef nonnull align 8 dereferenceable(8) %0, ptr noundef nonnull %3, i32 noundef %.sroa.speculated)
  %12 = icmp sgt i32 %11, 0
  %13 = add nuw nsw i32 %11, %.012
  br i1 %12, label %4, label %14, !llvm.loop !34

14:                                               ; preds = %4, %6
  call void @llvm.lifetime.end.p0(i64 4096, ptr nonnull %3) #19
  ret i32 %.012
}